; Function Attrs: nounwind uwtable
define internal range(i32 0, 2) i32 @test_kdf_hkdf_empty_key() #0 {
  %1 = alloca [10 x i8], align 1
  call void @llvm.lifetime.start.p0(i64 10, ptr nonnull %1) #6
  %2 = tail call fastcc ptr @construct_hkdf_params(ptr noundef nonnull @.str.60, ptr noundef nonnull @.str.122, i64 noundef 0, ptr noundef nonnull @.str.71, ptr noundef nonnull @.str.124)
  %3 = tail call i32 @test_ptr(ptr noundef nonnull @.str.53, i32 noundef 431, ptr noundef nonnull @.str.62, ptr noundef %2) #6
  %.not = icmp eq i32 %3, 0
  br i1 %.not, label %13, label %4

4:                                                ; preds = %0
  %5 = tail call ptr @EVP_KDF_fetch(ptr noundef null, ptr noundef nonnull @.str.126, ptr noundef null) #6
  %6 = tail call ptr @EVP_KDF_CTX_new(ptr noundef %5) #6
  tail call void @EVP_KDF_free(ptr noundef %5) #6
  %7 = tail call i32 @test_ptr(ptr noundef nonnull @.str.53, i32 noundef 432, ptr noundef nonnull @.str.125, ptr noundef %6) #6
  %.not5 = icmp eq i32 %7, 0
  br i1 %.not5, label %13, label %8

8:                                                ; preds = %4
  %9 = call i32 @EVP_KDF_derive(ptr noundef %6, ptr noundef nonnull %1, i64 noundef 10, ptr noundef %2) #6
  %10 = call i32 @test_int_gt(ptr noundef nonnull @.str.53, i32 noundef 433, ptr noundef nonnull @.str.120, ptr noundef nonnull @.str.67, i32 noundef %9, i32 noundef 0) #6
  %11 = icmp ne i32 %10, 0
  %12 = zext i1 %11 to i32
  br label %13

13:                                               ; preds = %8, %4, %0
  %.0 = phi ptr [ %6, %8 ], [ %6, %4 ], [ null, %0 ]
  %14 = phi i32 [ %12, %8 ], [ 0, %4 ], [ 0, %0 ]
  call void @EVP_KDF_CTX_free(ptr noundef %.0) #6
  call void @CRYPTO_free(ptr noundef %2, ptr noundef nonnull @.str.53, i32 noundef 436) #6
  call void @llvm.lifetime.end.p0(i64 10, ptr nonnull %1) #6
  ret i32 %14
}